; Function Attrs: mustprogress uwtable
define hidden void @_ZN3ue222ComponentBackReferenceC2ERKNSt7__cxx1112basic_stringIcSt11char_traitsIcESaIcEEE(ptr noundef nonnull align 8 dereferenceable(52) %this, ptr noundef nonnull align 8 dereferenceable(32) %s) unnamed_addr #0 align 2 personality ptr @__gxx_personality_v0 {
entry:
  tail call void @_ZN3ue29ComponentC2Ev(ptr noundef nonnull align 8 dereferenceable(16) %this)
  store ptr getelementptr inbounds ({ [17 x ptr] }, ptr @_ZTVN3ue222ComponentBackReferenceE, i64 0, i32 0, i64 2), ptr %this, align 8
  %name = getelementptr inbounds i8, ptr %this, i64 16
  invoke void @_ZNSt7__cxx1112basic_stringIcSt11char_traitsIcESaIcEEC1ERKS4_(ptr noundef nonnull align 8 dereferenceable(32) %name, ptr noundef nonnull align 8 dereferenceable(32) %s)
          to label %invoke.cont unwind label %lpad

invoke.cont:                                      ; preds = %entry
  %ref_id = getelementptr inbounds i8, ptr %this, i64 48
  store i32 0, ptr %ref_id, align 8
  ret void

lpad:                                             ; preds = %entry
  %0 = landingpad { ptr, i32 }
          cleanup
  tail call void @_ZN3ue29ComponentD2Ev(ptr noundef nonnull align 8 dereferenceable(16) %this) #9
  resume { ptr, i32 } %0
}